; Function Attrs: mustprogress null_pointer_is_valid sspstrong uwtable
define void @_ZN14ClickableLabel16contextMenuEventEP17QContextMenuEvent(ptr noundef align 8 dereferenceable_or_null(40) %0, ptr noundef readonly captures(none) %1) unnamed_addr #0 align 2 {
  %3 = alloca %class.QPoint, align 8
  call void @llvm.lifetime.start.p0(i64 8, ptr nonnull %3) #6
  %4 = getelementptr inbounds nuw i8, ptr %1, i64 48
  %5 = load i64, ptr %4, align 4
  store i64 %5, ptr %3, align 8
  call void @_ZN14ClickableLabel9clickedAtERK6QPointN2Qt11MouseButtonE(ptr noundef align 8 dereferenceable_or_null(40) %0, ptr noundef nonnull align 4 dereferenceable(8) %3, i32 noundef 2)
  call void @llvm.lifetime.end.p0(i64 8, ptr nonnull %3) #6
  ret void
}